
learn-in-depth.elf:     file format elf32-littlearm


Disassembly of section .startup:

00000000 <reset>:
   0:	e3a0da11 	mov	sp, #69632	@ 0x11000
   4:	eb000000 	bl	c <main>

00000008 <stop>:
   8:	eafffffe 	b	8 <stop>

Disassembly of section .text:

0000000c <main>:
   c:	e92d4800 	push	{fp, lr}
  10:	e28db004 	add	fp, sp, #4
  14:	e59f000c 	ldr	r0, [pc, #12]	@ 28 <main+0x1c>
  18:	eb000003 	bl	2c <Uart_Send_String>
  1c:	e3a03000 	mov	r3, #0
  20:	e1a00003 	mov	r0, r3
  24:	e8bd8800 	pop	{fp, pc}
  28:	00000084 	andeq	r0, r0, r4, lsl #1

0000002c <Uart_Send_String>:
  2c:	e52db004 	push	{fp}		@ (str fp, [sp, #-4]!)
  30:	e28db000 	add	fp, sp, #0
  34:	e24dd00c 	sub	sp, sp, #12
  38:	e50b0008 	str	r0, [fp, #-8]
  3c:	ea000006 	b	5c <Uart_Send_String+0x30>
  40:	e51b3008 	ldr	r3, [fp, #-8]
  44:	e5d32000 	ldrb	r2, [r3]
  48:	e59f3030 	ldr	r3, [pc, #48]	@ 80 <Uart_Send_String+0x54>
  4c:	e5832000 	str	r2, [r3]
  50:	e51b3008 	ldr	r3, [fp, #-8]
  54:	e2833001 	add	r3, r3, #1
  58:	e50b3008 	str	r3, [fp, #-8]
  5c:	e51b3008 	ldr	r3, [fp, #-8]
  60:	e5d33000 	ldrb	r3, [r3]
  64:	e3530000 	cmp	r3, #0
  68:	1afffff4 	bne	40 <Uart_Send_String+0x14>
  6c:	e1a00000 	nop			@ (mov r0, r0)
  70:	e1a00000 	nop			@ (mov r0, r0)
  74:	e28bd000 	add	sp, fp, #0
  78:	e49db004 	pop	{fp}		@ (ldr fp, [sp], #4)
  7c:	e12fff1e 	bx	lr
  80:	101f1000 	andsne	r1, pc, r0

Disassembly of section .startup:

00010000 <reset>:
   10000:	e3a0da11 	mov	sp, #69632	@ 0x11000
   10004:	eb000000 	bl	1000c <main>

00010008 <stop>:
   10008:	eafffffe 	b	10008 <stop>

Disassembly of section .text:

0001000c <main>:
   1000c:	e92d4800 	push	{fp, lr}
   10010:	e28db004 	add	fp, sp, #4
   10014:	e59f000c 	ldr	r0, [pc, #12]	@ 10028 <main+0x1c>
   10018:	eb000003 	bl	1002c <Uart_Send_String>
   1001c:	e3a03000 	mov	r3, #0
   10020:	e1a00003 	mov	r0, r3
   10024:	e8bd8800 	pop	{fp, pc}
   10028:	00010084 	andeq	r0, r1, r4, lsl #1

0001002c <Uart_Send_String>:
   1002c:	e52db004 	push	{fp}		@ (str fp, [sp, #-4]!)
   10030:	e28db000 	add	fp, sp, #0
   10034:	e24dd00c 	sub	sp, sp, #12
   10038:	e50b0008 	str	r0, [fp, #-8]
   1003c:	ea000006 	b	1005c <Uart_Send_String+0x30>
   10040:	e51b3008 	ldr	r3, [fp, #-8]
   10044:	e5d32000 	ldrb	r2, [r3]
   10048:	e59f3030 	ldr	r3, [pc, #48]	@ 10080 <Uart_Send_String+0x54>
   1004c:	e5832000 	str	r2, [r3]
   10050:	e51b3008 	ldr	r3, [fp, #-8]
   10054:	e2833001 	add	r3, r3, #1
   10058:	e50b3008 	str	r3, [fp, #-8]
   1005c:	e51b3008 	ldr	r3, [fp, #-8]
   10060:	e5d33000 	ldrb	r3, [r3]
   10064:	e3530000 	cmp	r3, #0
   10068:	1afffff4 	bne	10040 <Uart_Send_String+0x14>
   1006c:	e1a00000 	nop			@ (mov r0, r0)
   10070:	e1a00000 	nop			@ (mov r0, r0)
   10074:	e28bd000 	add	sp, fp, #0
   10078:	e49db004 	pop	{fp}		@ (ldr fp, [sp], #4)
   1007c:	e12fff1e 	bx	lr
   10080:	101f1000 	andsne	r1, pc, r0
